target datalayout = "e-m:e-p270:32:32-p271:32:32-p272:64:64-i64:64-i128:128-f80:128-n8:16:32:64-S128"
target triple = "x86_64-pc-linux-gnu"

%struct.glob_error_args = type { ptr, ptr, i32 }

@.str.52 = private unnamed_addr constant [3 x i8] c"%s\00", align 1

; Function Attrs: nounwind sspstrong uwtable
define internal i64 @glob_func_warning(i64 noundef %0) #0 {
  %2 = alloca i64, align 8
  %3 = alloca ptr, align 8
  store i64 %0, ptr %2, align 8, !tbaa !7
  call void @llvm.lifetime.start.p0(i64 8, ptr %3) #26
  %4 = load i64, ptr %2, align 8, !tbaa !7
  %5 = inttoptr i64 %4 to ptr
  store ptr %5, ptr %3, align 8, !tbaa !175
  %6 = load ptr, ptr %3, align 8, !tbaa !175
  %7 = getelementptr inbounds nuw %struct.glob_error_args, ptr %6, i32 0, i32 2
  %8 = load i32, ptr %7, align 8, !tbaa !174
  %9 = load ptr, ptr %3, align 8, !tbaa !175
  %10 = getelementptr inbounds nuw %struct.glob_error_args, ptr %9, i32 0, i32 1
  %11 = load ptr, ptr %10, align 8, !tbaa !173
  %12 = load ptr, ptr %3, align 8, !tbaa !175
  %13 = getelementptr inbounds nuw %struct.glob_error_args, ptr %12, i32 0, i32 0
  %14 = load ptr, ptr %13, align 8, !tbaa !171
  call void (i32, ptr, ptr, ...) @rb_syserr_enc_warning(i32 noundef %8, ptr noundef %11, ptr noundef @.str.52, ptr noundef %14)
  call void @llvm.lifetime.end.p0(i64 8, ptr %3) #26
  ret i64 4
}