; Function Attrs: nounwind sspstrong uwtable
define internal noundef i64 @glob_func_warning(i64 noundef %0) #0 {
  %2 = inttoptr i64 %0 to ptr
  %3 = getelementptr inbounds nuw i8, ptr %2, i64 16
  %4 = load i32, ptr %3, align 8, !tbaa !188
  %5 = getelementptr inbounds nuw i8, ptr %2, i64 8
  %6 = load ptr, ptr %5, align 8, !tbaa !187
  %7 = load ptr, ptr %2, align 8, !tbaa !185
  tail call void (i32, ptr, ptr, ...) @rb_syserr_enc_warning(i32 noundef %4, ptr noundef %6, ptr noundef nonnull @.str.52, ptr noundef %7) #22
  ret i64 4
}